target datalayout = "e-m:e-p270:32:32-p271:32:32-p272:64:64-i64:64-i128:128-f80:128-n8:16:32:64-S128"
target triple = "x86_64-pc-linux-gnu"

%"class.clang::ActionResult" = type { i64 }
%"class.clang::SourceLocation" = type { i32 }
%"class.llvm::SmallVectorBase" = type { ptr, i32, i32 }
%"class.llvm::StringRef" = type { ptr, i64 }
%"class.llvm::ArrayRef.1247" = type { ptr, i64 }
%"class.llvm::SmallPtrSetImplBase.base" = type <{ ptr, ptr, i32, i32, i32 }>
%"class.llvm::MutableArrayRef.1270" = type { %"class.llvm::ArrayRef.1247" }
%"class.clang::sema::FunctionScopeInfo" = type { ptr, i32, %"class.clang::SourceLocation", %"class.clang::SourceLocation", %"class.clang::SourceLocation", i32, %"class.clang::SourceLocation", %"class.clang::SourceLocation", %"class.clang::DiagnosticErrorTrap", %"class.llvm::SmallVector.1188", %"class.llvm::SmallVector.1193", ptr, %"struct.llvm::SmallMapVector", %"struct.std::pair.1207", %"class.llvm::SmallVector.1209", %"class.llvm::SmallPtrSet.1214", %"class.llvm::TinyPtrVector", %"class.llvm::SmallVector.1222", %"class.llvm::SmallPtrSet.1227", %"class.llvm::SmallVector.1230", %"class.llvm::SmallDenseMap.1235" }
%"class.clang::DiagnosticErrorTrap" = type { ptr, i32, i32 }
%"class.llvm::SmallVector.1188" = type { %"class.llvm::SmallVectorImpl.1189", %"struct.llvm::SmallVectorStorage.1192" }
%"class.llvm::SmallVectorImpl.1189" = type { %"class.llvm::SmallVectorTemplateBase.1190" }
%"class.llvm::SmallVectorTemplateBase.1190" = type { %"class.llvm::SmallVectorTemplateCommon.1191" }
%"class.llvm::SmallVectorTemplateCommon.1191" = type { %"class.llvm::SmallVectorBase" }
%"struct.llvm::SmallVectorStorage.1192" = type { [64 x i8] }
%"class.llvm::SmallVector.1193" = type { %"class.llvm::SmallVectorImpl.1194", %"struct.llvm::SmallVectorStorage.1197" }
%"class.llvm::SmallVectorImpl.1194" = type { %"class.llvm::SmallVectorTemplateBase.1195" }
%"class.llvm::SmallVectorTemplateBase.1195" = type { %"class.llvm::SmallVectorTemplateCommon.1196" }
%"class.llvm::SmallVectorTemplateCommon.1196" = type { %"class.llvm::SmallVectorBase" }
%"struct.llvm::SmallVectorStorage.1197" = type { [32 x i8] }
%"struct.llvm::SmallMapVector" = type { %"class.llvm::MapVector.1198" }
%"class.llvm::MapVector.1198" = type { %"class.llvm::SmallDenseMap.1199", %"class.llvm::SmallVector.1202" }
%"class.llvm::SmallDenseMap.1199" = type { i32, i32, %"struct.llvm::AlignedCharArrayUnion.1201" }
%"struct.llvm::AlignedCharArrayUnion.1201" = type { [64 x i8] }
%"class.llvm::SmallVector.1202" = type { %"class.llvm::SmallVectorImpl.1203", %"struct.llvm::SmallVectorStorage.1206" }
%"class.llvm::SmallVectorImpl.1203" = type { %"class.llvm::SmallVectorTemplateBase.1204" }
%"class.llvm::SmallVectorTemplateBase.1204" = type { %"class.llvm::SmallVectorTemplateCommon.1205" }
%"class.llvm::SmallVectorTemplateCommon.1205" = type { %"class.llvm::SmallVectorBase" }
%"struct.llvm::SmallVectorStorage.1206" = type { [64 x i8] }
%"struct.std::pair.1207" = type { ptr, ptr }
%"class.llvm::SmallVector.1209" = type { %"class.llvm::SmallVectorImpl.1210", %"struct.llvm::SmallVectorStorage.1213" }
%"class.llvm::SmallVectorImpl.1210" = type { %"class.llvm::SmallVectorTemplateBase.1211" }
%"class.llvm::SmallVectorTemplateBase.1211" = type { %"class.llvm::SmallVectorTemplateCommon.1212" }
%"class.llvm::SmallVectorTemplateCommon.1212" = type { %"class.llvm::SmallVectorBase" }
%"struct.llvm::SmallVectorStorage.1213" = type { [32 x i8] }
%"class.llvm::SmallPtrSet.1214" = type { %"class.llvm::SmallPtrSetImpl.base.1216", [1 x ptr] }
%"class.llvm::SmallPtrSetImpl.base.1216" = type { %"class.llvm::SmallPtrSetImplBase.base" }
%"class.llvm::TinyPtrVector" = type { %"class.llvm::PointerUnion.1217" }
%"class.llvm::PointerUnion.1217" = type { %"class.llvm::pointer_union_detail::PointerUnionMembers.1218" }
%"class.llvm::pointer_union_detail::PointerUnionMembers.1218" = type { %"class.llvm::pointer_union_detail::PointerUnionMembers.1219" }
%"class.llvm::pointer_union_detail::PointerUnionMembers.1219" = type { %"class.llvm::pointer_union_detail::PointerUnionMembers.1220" }
%"class.llvm::pointer_union_detail::PointerUnionMembers.1220" = type { %"class.llvm::PointerIntPair.1221" }
%"class.llvm::PointerIntPair.1221" = type { %"struct.llvm::detail::PunnedPointer.647" }
%"struct.llvm::detail::PunnedPointer.647" = type { [8 x i8] }
%"class.llvm::SmallVector.1222" = type { %"class.llvm::SmallVectorImpl.1223", %"struct.llvm::SmallVectorStorage.1226" }
%"class.llvm::SmallVectorImpl.1223" = type { %"class.llvm::SmallVectorTemplateBase.1224" }
%"class.llvm::SmallVectorTemplateBase.1224" = type { %"class.llvm::SmallVectorTemplateCommon.1225" }
%"class.llvm::SmallVectorTemplateCommon.1225" = type { %"class.llvm::SmallVectorBase" }
%"struct.llvm::SmallVectorStorage.1226" = type { [160 x i8] }
%"class.llvm::SmallPtrSet.1227" = type { %"class.llvm::SmallPtrSetImpl.base.1229", [8 x ptr] }
%"class.llvm::SmallPtrSetImpl.base.1229" = type { %"class.llvm::SmallPtrSetImplBase.base" }
%"class.llvm::SmallVector.1230" = type { %"class.llvm::SmallVectorImpl.1231", %"struct.llvm::SmallVectorStorage.1234" }
%"class.llvm::SmallVectorImpl.1231" = type { %"class.llvm::SmallVectorTemplateBase.1232" }
%"class.llvm::SmallVectorTemplateBase.1232" = type { %"class.llvm::SmallVectorTemplateCommon.1233" }
%"class.llvm::SmallVectorTemplateCommon.1233" = type { %"class.llvm::SmallVectorBase" }
%"struct.llvm::SmallVectorStorage.1234" = type { [32 x i8] }
%"class.llvm::SmallDenseMap.1235" = type { i32, i32, %"struct.llvm::AlignedCharArrayUnion.1237" }
%"struct.llvm::AlignedCharArrayUnion.1237" = type { [512 x i8] }
%"class.clang::CoroutineStmtBuilder" = type { %"struct.clang::CoroutineBodyStmt::CtorArgs", ptr, ptr, ptr, i8, %"class.clang::SourceLocation", %"class.llvm::SmallVector.1308", i8, ptr }
%"struct.clang::CoroutineBodyStmt::CtorArgs" = type { ptr, ptr, ptr, ptr, ptr, ptr, ptr, ptr, ptr, ptr, ptr, ptr, %"class.llvm::ArrayRef.1307" }
%"class.llvm::ArrayRef.1307" = type { ptr, i64 }
%"class.llvm::SmallVector.1308" = type { %"class.llvm::SmallVectorImpl.1309", %"struct.llvm::SmallVectorStorage.1312" }
%"class.llvm::SmallVectorImpl.1309" = type { %"class.llvm::SmallVectorTemplateBase.1310" }
%"class.llvm::SmallVectorTemplateBase.1310" = type { %"class.llvm::SmallVectorTemplateCommon.1311" }
%"class.llvm::SmallVectorTemplateCommon.1311" = type { %"class.llvm::SmallVectorBase" }
%"struct.llvm::SmallVectorStorage.1312" = type { [32 x i8] }

@.str.12 = private unnamed_addr constant [18 x i8] c"get_return_object\00", align 1

; Function Attrs: mustprogress nounwind uwtable
define linkonce_odr hidden noundef ptr @_ZN4llvm21PointerLikeTypeTraitsIPN5clang4ExprEE18getFromVoidPointerEPv(ptr noundef %0) #0 comdat align 2 {
  %2 = alloca ptr, align 8
  store ptr %0, ptr %2, align 8
  %3 = load ptr, ptr %2, align 8
  ret ptr %3
}

; Function Attrs: mustprogress nounwind uwtable
define linkonce_odr hidden void @_ZN4llvm8ArrayRefIPN5clang4ExprEEC2Ev(ptr noundef nonnull align 8 dereferenceable(16) %0) unnamed_addr #0 comdat align 2 {
  %2 = alloca ptr, align 8
  store ptr %0, ptr %2, align 8
  %3 = load ptr, ptr %2, align 8
  %4 = getelementptr inbounds nuw %"class.llvm::ArrayRef.1247", ptr %3, i32 0, i32 0
  store ptr null, ptr %4, align 8
  %5 = getelementptr inbounds nuw %"class.llvm::ArrayRef.1247", ptr %3, i32 0, i32 1
  store i64 0, ptr %5, align 8
  ret void
}

; Function Attrs: mustprogress nounwind uwtable
define linkonce_odr hidden noundef i64 @_ZNSt11char_traitsIcE6lengthEPKc(ptr noundef %0) #0 comdat align 2 {
  %2 = alloca ptr, align 8
  store ptr %0, ptr %2, align 8
  %3 = load ptr, ptr %2, align 8
  %4 = call i64 @strlen(ptr noundef %3) #12
  ret i64 %4
}

; Function Attrs: mustprogress nounwind uwtable
define linkonce_odr hidden noundef ptr @_ZNK5clang12ActionResultIPNS_4ExprELb1EE3getEv(ptr noundef nonnull align 8 dereferenceable(8) %0) #0 comdat align 2 {
  %2 = alloca ptr, align 8
  %3 = alloca ptr, align 8
  store ptr %0, ptr %2, align 8
  %4 = load ptr, ptr %2, align 8
  %5 = getelementptr inbounds nuw %"class.clang::ActionResult", ptr %4, i32 0, i32 0
  %6 = load i64, ptr %5, align 8
  %7 = and i64 %6, -2
  %8 = inttoptr i64 %7 to ptr
  store ptr %8, ptr %3, align 8
  %9 = load ptr, ptr %3, align 8
  %10 = call noundef ptr @_ZN4llvm21PointerLikeTypeTraitsIPN5clang4ExprEE18getFromVoidPointerEPv(ptr noundef %9)
  ret ptr %10
}

; Function Attrs: mustprogress nounwind uwtable
define linkonce_odr hidden noundef zeroext i1 @_ZNK5clang12ActionResultIPNS_4ExprELb1EE9isInvalidEv(ptr noundef nonnull align 8 dereferenceable(8) %0) #0 comdat align 2 {
  %2 = alloca ptr, align 8
  store ptr %0, ptr %2, align 8
  %3 = load ptr, ptr %2, align 8
  %4 = getelementptr inbounds nuw %"class.clang::ActionResult", ptr %3, i32 0, i32 0
  %5 = load i64, ptr %4, align 8
  %6 = icmp eq i64 %5, 1
  ret i1 %6
}

; Function Attrs: mustprogress nounwind uwtable
define linkonce_odr hidden void @_ZN4llvm15MutableArrayRefIPN5clang4ExprEEC2ESt9nullopt_t(ptr noundef nonnull align 8 dereferenceable(16) %0) unnamed_addr #0 comdat align 2 {
  %2 = alloca ptr, align 8
  store ptr %0, ptr %2, align 8
  %3 = load ptr, ptr %2, align 8
  %4 = getelementptr inbounds i8, ptr %3, i64 0
  call void @llvm.memset.p0.i64(ptr align 8 %4, i8 0, i64 16, i1 false)
  call void @_ZN4llvm8ArrayRefIPN5clang4ExprEEC2Ev(ptr noundef nonnull align 8 dereferenceable(16) %3) #12
  ret void
}

; Function Attrs: mustprogress nounwind uwtable
define linkonce_odr hidden void @_ZN4llvm9StringRefC2EPKc(ptr noundef nonnull align 8 dereferenceable(16) %0, ptr noundef %1) unnamed_addr #0 comdat align 2 {
  %3 = alloca ptr, align 8
  %4 = alloca ptr, align 8
  store ptr %0, ptr %3, align 8
  store ptr %1, ptr %4, align 8
  %5 = load ptr, ptr %3, align 8
  %6 = getelementptr inbounds nuw %"class.llvm::StringRef", ptr %5, i32 0, i32 0
  %7 = load ptr, ptr %4, align 8
  store ptr %7, ptr %6, align 8
  %8 = getelementptr inbounds nuw %"class.llvm::StringRef", ptr %5, i32 0, i32 1
  %9 = load ptr, ptr %4, align 8
  %10 = icmp ne ptr %9, null
  br i1 %10, label %11, label %14

11:                                               ; preds = %2
  %12 = load ptr, ptr %4, align 8
  %13 = call noundef i64 @_ZNSt11char_traitsIcE6lengthEPKc(ptr noundef %12)
  br label %15

14:                                               ; preds = %2
  br label %15

15:                                               ; preds = %14, %11
  %16 = phi i64 [ %13, %11 ], [ 0, %14 ]
  store i64 %16, ptr %8, align 8
  ret void
}

; Function Attrs: mustprogress nounwind uwtable
define dso_local noundef zeroext i1 @_ZN5clang20CoroutineStmtBuilder16makeReturnObjectEv(ptr noundef nonnull align 8 dereferenceable(208) %0) #0 align 2 {
  %2 = alloca i1, align 1
  %3 = alloca ptr, align 8
  %4 = alloca %"class.clang::ActionResult", align 8
  %5 = alloca %"class.clang::SourceLocation", align 4
  %6 = alloca %"class.llvm::StringRef", align 8
  %7 = alloca %"class.llvm::MutableArrayRef.1270", align 8
  store ptr %0, ptr %3, align 8
  %8 = load ptr, ptr %3, align 8
  %9 = getelementptr inbounds nuw %"class.clang::CoroutineStmtBuilder", ptr %8, i32 0, i32 1
  %10 = load ptr, ptr %9, align 8
  %11 = getelementptr inbounds nuw %"class.clang::CoroutineStmtBuilder", ptr %8, i32 0, i32 3
  %12 = load ptr, ptr %11, align 8
  %13 = getelementptr inbounds nuw %"class.clang::sema::FunctionScopeInfo", ptr %12, i32 0, i32 11
  %14 = load ptr, ptr %13, align 8
  %15 = getelementptr inbounds nuw %"class.clang::CoroutineStmtBuilder", ptr %8, i32 0, i32 5
  call void @llvm.memcpy.p0.p0.i64(ptr align 4 %5, ptr align 4 %15, i64 4, i1 false)
  call void @_ZN4llvm9StringRefC2EPKc(ptr noundef nonnull align 8 dereferenceable(16) %6, ptr noundef @.str.12)
  call void @_ZN4llvm15MutableArrayRefIPN5clang4ExprEEC2ESt9nullopt_t(ptr noundef nonnull align 8 dereferenceable(16) %7)
  %16 = getelementptr inbounds nuw %"class.clang::SourceLocation", ptr %5, i32 0, i32 0
  %17 = load i32, ptr %16, align 4
  %18 = getelementptr inbounds nuw { ptr, i64 }, ptr %6, i32 0, i32 0
  %19 = load ptr, ptr %18, align 8
  %20 = getelementptr inbounds nuw { ptr, i64 }, ptr %6, i32 0, i32 1
  %21 = load i64, ptr %20, align 8
  %22 = call i64 @_ZL16buildPromiseCallRN5clang4SemaEPNS_7VarDeclENS_14SourceLocationEN4llvm9StringRefENS5_15MutableArrayRefIPNS_4ExprEEE(ptr noundef nonnull align 8 dereferenceable(17560) %10, ptr noundef %14, i32 %17, ptr %19, i64 %21, ptr noundef byval(%"class.llvm::MutableArrayRef.1270") align 8 %7)
  %23 = getelementptr inbounds nuw %"class.clang::ActionResult", ptr %4, i32 0, i32 0
  store i64 %22, ptr %23, align 8
  %24 = call noundef zeroext i1 @_ZNK5clang12ActionResultIPNS_4ExprELb1EE9isInvalidEv(ptr noundef nonnull align 8 dereferenceable(8) %4)
  br i1 %24, label %25, label %26

25:                                               ; preds = %1
  store i1 false, ptr %2, align 1
  br label %29

26:                                               ; preds = %1
  %27 = call noundef ptr @_ZNK5clang12ActionResultIPNS_4ExprELb1EE3getEv(ptr noundef nonnull align 8 dereferenceable(8) %4)
  %28 = getelementptr inbounds nuw %"struct.clang::CoroutineBodyStmt::CtorArgs", ptr %8, i32 0, i32 9
  store ptr %27, ptr %28, align 8
  store i1 true, ptr %2, align 1
  br label %29

29:                                               ; preds = %26, %25
  %30 = load i1, ptr %2, align 1
  ret i1 %30
}