; Function Attrs: mustprogress nounwind uwtable
define dso_local noundef zeroext i1 @_ZN5clang20CoroutineStmtBuilder16makeReturnObjectEv(ptr nocapture noundef nonnull align 8 dereferenceable(208) %0) local_unnamed_addr #0 align 2 {
  %2 = alloca %"class.llvm::MutableArrayRef.1270", align 8
  %3 = getelementptr inbounds nuw i8, ptr %0, i64 112
  %4 = load ptr, ptr %3, align 8
  %5 = getelementptr inbounds nuw i8, ptr %0, i64 128
  %6 = load ptr, ptr %5, align 8
  %7 = getelementptr inbounds nuw i8, ptr %6, i64 184
  %8 = load ptr, ptr %7, align 8
  %9 = getelementptr inbounds nuw i8, ptr %0, i64 140
  %.sroa.0.0.copyload = load i32, ptr %9, align 4
  call void @llvm.memset.p0.i64(ptr noundef nonnull align 8 dereferenceable(16) %2, i8 0, i64 16, i1 false)
  %10 = tail call fastcc i64 @_ZL16buildPromiseCallRN5clang4SemaEPNS_7VarDeclENS_14SourceLocationEN4llvm9StringRefENS5_15MutableArrayRefIPNS_4ExprEEE(ptr noundef nonnull align 8 dereferenceable(17560) %4, ptr noundef %8, i32 %.sroa.0.0.copyload, ptr nonnull @.str.12, i64 17, ptr noundef nonnull byval(%"class.llvm::MutableArrayRef.1270") align 8 %2)
  %11 = icmp ne i64 %10, 1
  br i1 %11, label %12, label %16

12:                                               ; preds = %1
  %13 = and i64 %10, -2
  %14 = inttoptr i64 %13 to ptr
  %15 = getelementptr inbounds nuw i8, ptr %0, i64 72
  store ptr %14, ptr %15, align 8
  br label %16

16:                                               ; preds = %1, %12
  ret i1 %11
}